target datalayout = "e-m:e-p270:32:32-p271:32:32-p272:64:64-i64:64-i128:128-f80:128-n8:16:32:64-S128"
target triple = "x86_64-pc-linux-gnu"

%struct.regex_t = type { i32, i64, ptr, ptr }

@skipauth = dso_local global i32 0, align 4
@.str = private unnamed_addr constant [2 x i8] c"r\00", align 1
@.str.1 = private unnamed_addr constant [34 x i8] c"Cannot open allow list file '%s'\0A\00", align 1
@.str.6 = private unnamed_addr constant [6 x i8] c"file:\00", align 1
@.str.7 = private unnamed_addr constant [51 x i8] c"Cannot allocate memory for SkipAuthenticated file\0A\00", align 1
@authreg = dso_local global %struct.regex_t zeroinitializer, align 8
@.str.8 = private unnamed_addr constant [52 x i8] c"Failed to compile regex '%s' for SkipAuthenticated\0A\00", align 1

; Function Attrs: nounwind uwtable
define dso_local i32 @smtpauth_init(ptr noundef %0) #0 {
  %2 = alloca i32, align 4
  %3 = alloca ptr, align 8
  %4 = alloca ptr, align 8
  %5 = alloca [2048 x i8], align 16
  %6 = alloca ptr, align 8
  %7 = alloca i32, align 4
  %8 = alloca i32, align 4
  %9 = alloca i32, align 4
  %10 = alloca i32, align 4
  %11 = alloca ptr, align 8
  %12 = alloca ptr, align 8
  store ptr %0, ptr %3, align 8
  store ptr null, ptr %4, align 8
  %13 = load ptr, ptr %3, align 8
  %14 = call i32 @strncmp(ptr noundef %13, ptr noundef @.str.6, i64 noundef 5) #7
  %15 = icmp ne i32 %14, 0
  br i1 %15, label %232, label %16

16:                                               ; preds = %1
  %17 = load ptr, ptr %3, align 8
  %18 = getelementptr inbounds i8, ptr %17, i64 5
  %19 = call noalias ptr @fopen(ptr noundef %18, ptr noundef @.str)
  store ptr %19, ptr %6, align 8
  store i32 0, ptr %7, align 4
  store i32 0, ptr %8, align 4
  store i32 0, ptr %9, align 4
  %20 = load ptr, ptr %6, align 8
  %21 = icmp ne ptr %20, null
  br i1 %21, label %26, label %22

22:                                               ; preds = %16
  %23 = load ptr, ptr %3, align 8
  %24 = getelementptr inbounds i8, ptr %23, i64 5
  %25 = call i32 (i32, ptr, ...) @logg(i32 noundef 5, ptr noundef @.str.1, ptr noundef %24)
  store i32 1, ptr %2, align 4
  br label %250

26:                                               ; preds = %16
  br label %27

27:                                               ; preds = %192, %81, %47, %26
  %28 = getelementptr inbounds [2048 x i8], ptr %5, i64 0, i64 0
  %29 = load ptr, ptr %6, align 8
  %30 = call ptr @fgets(ptr noundef %28, i32 noundef 2048, ptr noundef %29)
  %31 = icmp ne ptr %30, null
  br i1 %31, label %32, label %200

32:                                               ; preds = %27
  %33 = getelementptr inbounds [2048 x i8], ptr %5, i64 0, i64 0
  %34 = load i8, ptr %33, align 16
  %35 = sext i8 %34 to i32
  %36 = icmp eq i32 %35, 35
  br i1 %36, label %47, label %37

37:                                               ; preds = %32
  %38 = getelementptr inbounds [2048 x i8], ptr %5, i64 0, i64 0
  %39 = load i8, ptr %38, align 16
  %40 = sext i8 %39 to i32
  %41 = icmp eq i32 %40, 58
  br i1 %41, label %47, label %42

42:                                               ; preds = %37
  %43 = getelementptr inbounds [2048 x i8], ptr %5, i64 0, i64 0
  %44 = load i8, ptr %43, align 16
  %45 = sext i8 %44 to i32
  %46 = icmp eq i32 %45, 33
  br i1 %46, label %47, label %48

47:                                               ; preds = %42, %37, %32
  br label %27

48:                                               ; preds = %42
  %49 = getelementptr inbounds [2048 x i8], ptr %5, i64 0, i64 0
  %50 = call i64 @strlen(ptr noundef %49) #7
  %51 = sub i64 %50, 1
  %52 = trunc i64 %51 to i32
  store i32 %52, ptr %10, align 4
  br label %53

53:                                               ; preds = %75, %48
  %54 = load i32, ptr %10, align 4
  %55 = icmp sge i32 %54, 0
  br i1 %55, label %56, label %78

56:                                               ; preds = %53
  %57 = load i32, ptr %10, align 4
  %58 = sext i32 %57 to i64
  %59 = getelementptr inbounds [2048 x i8], ptr %5, i64 0, i64 %58
  %60 = load i8, ptr %59, align 1
  %61 = sext i8 %60 to i32
  %62 = icmp ne i32 %61, 10
  br i1 %62, label %63, label %71

63:                                               ; preds = %56
  %64 = load i32, ptr %10, align 4
  %65 = sext i32 %64 to i64
  %66 = getelementptr inbounds [2048 x i8], ptr %5, i64 0, i64 %65
  %67 = load i8, ptr %66, align 1
  %68 = sext i8 %67 to i32
  %69 = icmp ne i32 %68, 13
  br i1 %69, label %70, label %71

70:                                               ; preds = %63
  br label %78

71:                                               ; preds = %63, %56
  %72 = load i32, ptr %10, align 4
  %73 = sext i32 %72 to i64
  %74 = getelementptr inbounds [2048 x i8], ptr %5, i64 0, i64 %73
  store i8 0, ptr %74, align 1
  br label %75

75:                                               ; preds = %71
  %76 = load i32, ptr %10, align 4
  %77 = add nsw i32 %76, -1
  store i32 %77, ptr %10, align 4
  br label %53

78:                                               ; preds = %70, %53
  %79 = load i32, ptr %10, align 4
  %80 = icmp sle i32 %79, 0
  br i1 %80, label %81, label %82

81:                                               ; preds = %78
  br label %27

82:                                               ; preds = %78
  %83 = load i32, ptr %10, align 4
  %84 = mul nsw i32 %83, 3
  %85 = add nsw i32 %84, 1
  %86 = load i32, ptr %8, align 4
  %87 = icmp sgt i32 %85, %86
  br i1 %87, label %88, label %116

88:                                               ; preds = %82
  %89 = load ptr, ptr %4, align 8
  store ptr %89, ptr %11, align 8
  %90 = load ptr, ptr %4, align 8
  %91 = load i32, ptr %7, align 4
  %92 = add nsw i32 %91, 2048
  %93 = sext i32 %92 to i64
  %94 = call ptr @realloc(ptr noundef %90, i64 noundef %93) #9
  store ptr %94, ptr %12, align 8
  %95 = load ptr, ptr %12, align 8
  %96 = icmp ne ptr %95, null
  br i1 %96, label %102, label %97

97:                                               ; preds = %88
  %98 = load ptr, ptr %4, align 8
  call void @free(ptr noundef %98) #6
  %99 = call i32 (i32, ptr, ...) @logg(i32 noundef 5, ptr noundef @.str.7)
  %100 = load ptr, ptr %6, align 8
  %101 = call i32 @fclose(ptr noundef %100)
  store i32 1, ptr %2, align 4
  br label %250

102:                                              ; preds = %88
  %103 = load ptr, ptr %12, align 8
  store ptr %103, ptr %4, align 8
  store i32 2048, ptr %8, align 4
  %104 = load i32, ptr %7, align 4
  %105 = add nsw i32 %104, 2048
  store i32 %105, ptr %7, align 4
  %106 = load ptr, ptr %11, align 8
  %107 = icmp ne ptr %106, null
  br i1 %107, label %115, label %108

108:                                              ; preds = %102
  %109 = load ptr, ptr %4, align 8
  %110 = getelementptr inbounds i8, ptr %109, i64 0
  store i8 94, ptr %110, align 1
  %111 = load ptr, ptr %4, align 8
  %112 = getelementptr inbounds i8, ptr %111, i64 1
  store i8 40, ptr %112, align 1
  %113 = load i32, ptr %8, align 4
  %114 = sub nsw i32 %113, 2
  store i32 %114, ptr %8, align 4
  store i32 2, ptr %9, align 4
  br label %115

115:                                              ; preds = %108, %102
  br label %116

116:                                              ; preds = %115, %82
  %117 = getelementptr inbounds [2048 x i8], ptr %5, i64 0, i64 0
  store ptr %117, ptr %11, align 8
  br label %118

118:                                              ; preds = %189, %116
  %119 = load ptr, ptr %11, align 8
  %120 = load i8, ptr %119, align 1
  %121 = icmp ne i8 %120, 0
  br i1 %121, label %122, label %192

122:                                              ; preds = %118
  %123 = load ptr, ptr %11, align 8
  %124 = load i8, ptr %123, align 1
  %125 = sext i8 %124 to i32
  %126 = icmp sge i32 %125, 65
  br i1 %126, label %127, label %132

127:                                              ; preds = %122
  %128 = load ptr, ptr %11, align 8
  %129 = load i8, ptr %128, align 1
  %130 = sext i8 %129 to i32
  %131 = icmp sle i32 %130, 90
  br i1 %131, label %157, label %132

132:                                              ; preds = %127, %122
  %133 = load ptr, ptr %11, align 8
  %134 = load i8, ptr %133, align 1
  %135 = sext i8 %134 to i32
  %136 = icmp sge i32 %135, 97
  br i1 %136, label %137, label %142

137:                                              ; preds = %132
  %138 = load ptr, ptr %11, align 8
  %139 = load i8, ptr %138, align 1
  %140 = sext i8 %139 to i32
  %141 = icmp sle i32 %140, 122
  br i1 %141, label %157, label %142

142:                                              ; preds = %137, %132
  %143 = load ptr, ptr %11, align 8
  %144 = load i8, ptr %143, align 1
  %145 = sext i8 %144 to i32
  %146 = icmp sge i32 %145, 48
  br i1 %146, label %147, label %152

147:                                              ; preds = %142
  %148 = load ptr, ptr %11, align 8
  %149 = load i8, ptr %148, align 1
  %150 = sext i8 %149 to i32
  %151 = icmp sle i32 %150, 57
  br i1 %151, label %157, label %152

152:                                              ; preds = %147, %142
  %153 = load ptr, ptr %11, align 8
  %154 = load i8, ptr %153, align 1
  %155 = sext i8 %154 to i32
  %156 = icmp eq i32 %155, 64
  br i1 %156, label %157, label %168

157:                                              ; preds = %152, %147, %137, %127
  %158 = load ptr, ptr %11, align 8
  %159 = load i8, ptr %158, align 1
  %160 = load ptr, ptr %4, align 8
  %161 = load i32, ptr %9, align 4
  %162 = sext i32 %161 to i64
  %163 = getelementptr inbounds i8, ptr %160, i64 %162
  store i8 %159, ptr %163, align 1
  %164 = load i32, ptr %9, align 4
  %165 = add nsw i32 %164, 1
  store i32 %165, ptr %9, align 4
  %166 = load i32, ptr %8, align 4
  %167 = add nsw i32 %166, -1
  store i32 %167, ptr %8, align 4
  br label %189

168:                                              ; preds = %152
  %169 = load ptr, ptr %4, align 8
  %170 = load i32, ptr %9, align 4
  %171 = sext i32 %170 to i64
  %172 = getelementptr inbounds i8, ptr %169, i64 %171
  store i8 91, ptr %172, align 1
  %173 = load ptr, ptr %11, align 8
  %174 = load i8, ptr %173, align 1
  %175 = load ptr, ptr %4, align 8
  %176 = load i32, ptr %9, align 4
  %177 = add nsw i32 %176, 1
  %178 = sext i32 %177 to i64
  %179 = getelementptr inbounds i8, ptr %175, i64 %178
  store i8 %174, ptr %179, align 1
  %180 = load ptr, ptr %4, align 8
  %181 = load i32, ptr %9, align 4
  %182 = add nsw i32 %181, 2
  %183 = sext i32 %182 to i64
  %184 = getelementptr inbounds i8, ptr %180, i64 %183
  store i8 93, ptr %184, align 1
  %185 = load i32, ptr %9, align 4
  %186 = add nsw i32 %185, 3
  store i32 %186, ptr %9, align 4
  %187 = load i32, ptr %8, align 4
  %188 = sub nsw i32 %187, 3
  store i32 %188, ptr %8, align 4
  br label %189

189:                                              ; preds = %168, %157
  %190 = load ptr, ptr %11, align 8
  %191 = getelementptr inbounds i8, ptr %190, i32 1
  store ptr %191, ptr %11, align 8
  br label %118

192:                                              ; preds = %118
  %193 = load ptr, ptr %4, align 8
  %194 = load i32, ptr %9, align 4
  %195 = add nsw i32 %194, 1
  store i32 %195, ptr %9, align 4
  %196 = sext i32 %194 to i64
  %197 = getelementptr inbounds i8, ptr %193, i64 %196
  store i8 124, ptr %197, align 1
  %198 = load i32, ptr %8, align 4
  %199 = add nsw i32 %198, -1
  store i32 %199, ptr %8, align 4
  br label %27

200:                                              ; preds = %27
  %201 = load i32, ptr %8, align 4
  %202 = icmp slt i32 %201, 4
  br i1 %202, label %203, label %214

203:                                              ; preds = %200
  %204 = load ptr, ptr %4, align 8
  %205 = load i32, ptr %7, align 4
  %206 = add nsw i32 %205, 4
  %207 = sext i32 %206 to i64
  %208 = call ptr @realloc(ptr noundef %204, i64 noundef %207) #9
  store ptr %208, ptr %4, align 8
  %209 = icmp ne ptr %208, null
  br i1 %209, label %214, label %210

210:                                              ; preds = %203
  %211 = call i32 (i32, ptr, ...) @logg(i32 noundef 5, ptr noundef @.str.7)
  %212 = load ptr, ptr %6, align 8
  %213 = call i32 @fclose(ptr noundef %212)
  store i32 1, ptr %2, align 4
  br label %250

214:                                              ; preds = %203, %200
  %215 = load ptr, ptr %4, align 8
  %216 = load i32, ptr %9, align 4
  %217 = sub nsw i32 %216, 1
  %218 = sext i32 %217 to i64
  %219 = getelementptr inbounds i8, ptr %215, i64 %218
  store i8 41, ptr %219, align 1
  %220 = load ptr, ptr %4, align 8
  %221 = load i32, ptr %9, align 4
  %222 = sext i32 %221 to i64
  %223 = getelementptr inbounds i8, ptr %220, i64 %222
  store i8 36, ptr %223, align 1
  %224 = load ptr, ptr %4, align 8
  %225 = load i32, ptr %9, align 4
  %226 = add nsw i32 %225, 1
  %227 = sext i32 %226 to i64
  %228 = getelementptr inbounds i8, ptr %224, i64 %227
  store i8 0, ptr %228, align 1
  %229 = load ptr, ptr %4, align 8
  store ptr %229, ptr %3, align 8
  %230 = load ptr, ptr %6, align 8
  %231 = call i32 @fclose(ptr noundef %230)
  br label %232

232:                                              ; preds = %214, %1
  %233 = load ptr, ptr %3, align 8
  %234 = call i32 @cli_regcomp(ptr noundef @authreg, ptr noundef %233, i32 noundef 7)
  %235 = icmp ne i32 %234, 0
  br i1 %235, label %236, label %244

236:                                              ; preds = %232
  %237 = load ptr, ptr %3, align 8
  %238 = call i32 (i32, ptr, ...) @logg(i32 noundef 5, ptr noundef @.str.8, ptr noundef %237)
  %239 = load ptr, ptr %4, align 8
  %240 = icmp ne ptr %239, null
  br i1 %240, label %241, label %243

241:                                              ; preds = %236
  %242 = load ptr, ptr %4, align 8
  call void @free(ptr noundef %242) #6
  br label %243

243:                                              ; preds = %241, %236
  store i32 1, ptr %2, align 4
  br label %250

244:                                              ; preds = %232
  %245 = load ptr, ptr %4, align 8
  %246 = icmp ne ptr %245, null
  br i1 %246, label %247, label %249

247:                                              ; preds = %244
  %248 = load ptr, ptr %4, align 8
  call void @free(ptr noundef %248) #6
  br label %249

249:                                              ; preds = %247, %244
  store i32 1, ptr @skipauth, align 4
  store i32 0, ptr %2, align 4
  br label %250

250:                                              ; preds = %249, %243, %210, %97, %22
  %251 = load i32, ptr %2, align 4
  ret i32 %251
}