; Function Attrs: nounwind uwtable
define dso_local noundef i32 @smtpauth_init(ptr noundef %0) local_unnamed_addr #0 {
  %2 = alloca [2048 x i8], align 16
  %3 = tail call i32 @strncmp(ptr noundef nonnull dereferenceable(1) %0, ptr noundef nonnull dereferenceable(6) @.str.6, i64 noundef 5) #9
  %.not = icmp eq i32 %3, 0
  br i1 %.not, label %4, label %.thread

4:                                                ; preds = %1
  %5 = getelementptr inbounds i8, ptr %0, i64 5
  %6 = tail call noalias ptr @fopen(ptr noundef nonnull %5, ptr noundef nonnull @.str)
  %.not97 = icmp eq ptr %6, null
  br i1 %.not97, label %8, label %.preheader

.preheader:                                       ; preds = %4
  %7 = call ptr @fgets(ptr noundef nonnull %2, i32 noundef 2048, ptr noundef nonnull %6)
  %.not98134155 = icmp eq ptr %7, null
  br i1 %.not98134155, label %.outer._crit_edge.thread, label %.lr.ph135

8:                                                ; preds = %4
  %9 = tail call i32 (i32, ptr, ...) @logg(i32 noundef 5, ptr noundef nonnull @.str.1, ptr noundef nonnull %5) #8
  br label %87

10:                                               ; preds = %.lr.ph135, %.backedge
  %11 = load i8, ptr %2, align 16
  switch i8 %11, label %12 [
    i8 58, label %.backedge
    i8 35, label %.backedge
    i8 33, label %.backedge
  ]

12:                                               ; preds = %10
  %13 = call i64 @strlen(ptr noundef nonnull dereferenceable(1) %2) #9
  %14 = trunc i64 %13 to i32
  %.077130 = add i32 %14, -1
  %15 = icmp sgt i32 %.077130, -1
  br i1 %15, label %.lr.ph.preheader, label %.backedge

.lr.ph.preheader:                                 ; preds = %12
  %16 = zext nneg i32 %.077130 to i64
  br label %.lr.ph

.lr.ph:                                           ; preds = %.lr.ph.preheader, %19
  %indvars.iv = phi i64 [ %16, %.lr.ph.preheader ], [ %indvars.iv.next, %19 ]
  %17 = getelementptr inbounds [2048 x i8], ptr %2, i64 0, i64 %indvars.iv
  %18 = load i8, ptr %17, align 1
  switch i8 %18, label %._crit_edge [
    i8 10, label %19
    i8 13, label %19
  ]

19:                                               ; preds = %.lr.ph, %.lr.ph
  store i8 0, ptr %17, align 1
  %indvars.iv.next = add nsw i64 %indvars.iv, -1
  %20 = icmp sgt i64 %indvars.iv, 0
  br i1 %20, label %.lr.ph, label %.backedge

._crit_edge:                                      ; preds = %.lr.ph
  %21 = trunc nuw nsw i64 %indvars.iv to i32
  %22 = icmp slt i32 %21, 1
  br i1 %22, label %.backedge, label %24

.backedge:                                        ; preds = %19, %12, %._crit_edge, %10, %10, %10
  %23 = call ptr @fgets(ptr noundef nonnull %2, i32 noundef 2048, ptr noundef nonnull %6)
  %.not98 = icmp eq ptr %23, null
  br i1 %.not98, label %.outer._crit_edge, label %10

24:                                               ; preds = %._crit_edge
  %25 = mul nsw i32 %21, 3
  %.not102 = icmp slt i32 %25, %.079.ph158
  br i1 %.not102, label %36, label %26

26:                                               ; preds = %24
  %27 = add nsw i32 %.083.ph157, 2048
  %28 = sext i32 %27 to i64
  %29 = call ptr @realloc(ptr noundef %.086.ph156, i64 noundef %28) #11
  %.not103 = icmp eq ptr %29, null
  br i1 %.not103, label %30, label %33

30:                                               ; preds = %26
  call void @free(ptr noundef %.086.ph156) #8
  %31 = call i32 (i32, ptr, ...) @logg(i32 noundef 5, ptr noundef nonnull @.str.7) #8
  %32 = call i32 @fclose(ptr noundef nonnull %6)
  br label %87

33:                                               ; preds = %26
  %.not104 = icmp eq ptr %.086.ph156, null
  br i1 %.not104, label %34, label %36

34:                                               ; preds = %33
  store i8 94, ptr %29, align 1
  %35 = getelementptr inbounds i8, ptr %29, i64 1
  store i8 40, ptr %35, align 1
  br label %36

36:                                               ; preds = %33, %34, %24
  %.187 = phi ptr [ %29, %33 ], [ %29, %34 ], [ %.086.ph156, %24 ]
  %.184 = phi i32 [ %27, %33 ], [ %27, %34 ], [ %.083.ph157, %24 ]
  %.180 = phi i32 [ 2048, %33 ], [ 2046, %34 ], [ %.079.ph158, %24 ]
  %.1 = phi i32 [ %.078.ph159, %33 ], [ 2, %34 ], [ %.078.ph159, %24 ]
  %37 = load i8, ptr %2, align 16
  %.not105145 = icmp eq i8 %37, 0
  br i1 %.not105145, label %.outer, label %.lr.ph151

.lr.ph151:                                        ; preds = %36, %52
  %38 = phi i8 [ %58, %52 ], [ %37, %36 ]
  %.076148 = phi ptr [ %57, %52 ], [ %2, %36 ]
  %.2147 = phi i32 [ %55, %52 ], [ %.1, %36 ]
  %.281146 = phi i32 [ %56, %52 ], [ %.180, %36 ]
  %39 = and i8 %38, -33
  %40 = add i8 %39, -65
  %or.cond125 = icmp ult i8 %40, 26
  br i1 %or.cond125, label %52, label %41

41:                                               ; preds = %.lr.ph151
  %42 = add i8 %38, -48
  %or.cond110 = icmp ult i8 %42, 10
  %43 = icmp eq i8 %38, 64
  %or.cond124 = or i1 %43, %or.cond110
  br i1 %or.cond124, label %52, label %44

44:                                               ; preds = %41
  %45 = sext i32 %.2147 to i64
  %46 = getelementptr inbounds i8, ptr %.187, i64 %45
  store i8 91, ptr %46, align 1
  %47 = load i8, ptr %.076148, align 1
  %48 = add nsw i32 %.2147, 1
  %49 = sext i32 %48 to i64
  %50 = getelementptr inbounds i8, ptr %.187, i64 %49
  store i8 %47, ptr %50, align 1
  %51 = add nsw i32 %.2147, 2
  br label %52

52:                                               ; preds = %.lr.ph151, %41, %44
  %.sink200 = phi i32 [ %51, %44 ], [ %.2147, %41 ], [ %.2147, %.lr.ph151 ]
  %.sink197 = phi i8 [ 93, %44 ], [ %38, %41 ], [ %38, %.lr.ph151 ]
  %.sink196 = phi i32 [ 3, %44 ], [ 1, %41 ], [ 1, %.lr.ph151 ]
  %.sink = phi i32 [ -3, %44 ], [ -1, %41 ], [ -1, %.lr.ph151 ]
  %53 = sext i32 %.sink200 to i64
  %54 = getelementptr inbounds i8, ptr %.187, i64 %53
  store i8 %.sink197, ptr %54, align 1
  %55 = add nsw i32 %.2147, %.sink196
  %56 = add nsw i32 %.281146, %.sink
  %57 = getelementptr inbounds i8, ptr %.076148, i64 1
  %58 = load i8, ptr %57, align 1
  %.not105 = icmp eq i8 %58, 0
  br i1 %.not105, label %.outer, label %.lr.ph151

.outer:                                           ; preds = %52, %36
  %.281.lcssa = phi i32 [ %.180, %36 ], [ %56, %52 ]
  %.2.lcssa = phi i32 [ %.1, %36 ], [ %55, %52 ]
  %59 = add nsw i32 %.2.lcssa, 1
  %60 = sext i32 %.2.lcssa to i64
  %61 = getelementptr inbounds i8, ptr %.187, i64 %60
  store i8 124, ptr %61, align 1
  %62 = add nsw i32 %.281.lcssa, -1
  %63 = call ptr @fgets(ptr noundef nonnull %2, i32 noundef 2048, ptr noundef nonnull %6)
  %.not98134 = icmp eq ptr %63, null
  br i1 %.not98134, label %.outer._crit_edge, label %.lr.ph135

.lr.ph135:                                        ; preds = %.preheader, %.outer
  %.078.ph159 = phi i32 [ %59, %.outer ], [ 0, %.preheader ]
  %.079.ph158 = phi i32 [ %62, %.outer ], [ 0, %.preheader ]
  %.083.ph157 = phi i32 [ %.184, %.outer ], [ 0, %.preheader ]
  %.086.ph156 = phi ptr [ %.187, %.outer ], [ null, %.preheader ]
  br label %10

.outer._crit_edge:                                ; preds = %.outer, %.backedge
  %.086.ph.lcssa129 = phi ptr [ %.086.ph156, %.backedge ], [ %.187, %.outer ]
  %.083.ph.lcssa128 = phi i32 [ %.083.ph157, %.backedge ], [ %.184, %.outer ]
  %.079.ph.lcssa127 = phi i32 [ %.079.ph158, %.backedge ], [ %62, %.outer ]
  %.078.ph.lcssa126 = phi i32 [ %.078.ph159, %.backedge ], [ %59, %.outer ]
  %64 = icmp slt i32 %.079.ph.lcssa127, 4
  br i1 %64, label %.outer._crit_edge.thread, label %71

.outer._crit_edge.thread:                         ; preds = %.preheader, %.outer._crit_edge
  %.078.ph.lcssa126183 = phi i32 [ %.078.ph.lcssa126, %.outer._crit_edge ], [ 0, %.preheader ]
  %.083.ph.lcssa128181 = phi i32 [ %.083.ph.lcssa128, %.outer._crit_edge ], [ 0, %.preheader ]
  %.086.ph.lcssa129180 = phi ptr [ %.086.ph.lcssa129, %.outer._crit_edge ], [ null, %.preheader ]
  %65 = add nsw i32 %.083.ph.lcssa128181, 4
  %66 = sext i32 %65 to i64
  %67 = call ptr @realloc(ptr noundef %.086.ph.lcssa129180, i64 noundef %66) #11
  %.not99 = icmp eq ptr %67, null
  br i1 %.not99, label %68, label %71

68:                                               ; preds = %.outer._crit_edge.thread
  %69 = call i32 (i32, ptr, ...) @logg(i32 noundef 5, ptr noundef nonnull @.str.7) #8
  %70 = call i32 @fclose(ptr noundef nonnull %6)
  br label %87

71:                                               ; preds = %.outer._crit_edge, %.outer._crit_edge.thread
  %.078.ph.lcssa126182 = phi i32 [ %.078.ph.lcssa126183, %.outer._crit_edge.thread ], [ %.078.ph.lcssa126, %.outer._crit_edge ]
  %.288 = phi ptr [ %67, %.outer._crit_edge.thread ], [ %.086.ph.lcssa129, %.outer._crit_edge ]
  %72 = add nsw i32 %.078.ph.lcssa126182, -1
  %73 = sext i32 %72 to i64
  %74 = getelementptr inbounds i8, ptr %.288, i64 %73
  store i8 41, ptr %74, align 1
  %75 = sext i32 %.078.ph.lcssa126182 to i64
  %76 = getelementptr inbounds i8, ptr %.288, i64 %75
  store i8 36, ptr %76, align 1
  %77 = add nsw i32 %.078.ph.lcssa126182, 1
  %78 = sext i32 %77 to i64
  %79 = getelementptr inbounds i8, ptr %.288, i64 %78
  store i8 0, ptr %79, align 1
  %80 = call i32 @fclose(ptr noundef nonnull %6)
  %81 = call i32 @cli_regcomp(ptr noundef nonnull @authreg, ptr noundef %.288, i32 noundef 7) #8
  %.not106 = icmp eq i32 %81, 0
  br i1 %.not106, label %86, label %84

.thread:                                          ; preds = %1
  %82 = tail call i32 @cli_regcomp(ptr noundef nonnull @authreg, ptr noundef %0, i32 noundef 7) #8
  %.not106113 = icmp eq i32 %82, 0
  br i1 %.not106113, label %.thread117, label %.thread120

.thread120:                                       ; preds = %.thread
  %83 = tail call i32 (i32, ptr, ...) @logg(i32 noundef 5, ptr noundef nonnull @.str.8, ptr noundef %0) #8
  br label %87

84:                                               ; preds = %71
  %85 = call i32 (i32, ptr, ...) @logg(i32 noundef 5, ptr noundef nonnull @.str.8, ptr noundef nonnull %.288) #8
  call void @free(ptr noundef nonnull %.288) #8
  br label %87

86:                                               ; preds = %71
  call void @free(ptr noundef nonnull %.288) #8
  br label %.thread117

.thread117:                                       ; preds = %.thread, %86
  store i32 1, ptr @skipauth, align 4
  br label %87

87:                                               ; preds = %.thread120, %84, %.thread117, %68, %30, %8
  %.0 = phi i32 [ 0, %.thread117 ], [ 1, %30 ], [ 1, %68 ], [ 1, %8 ], [ 1, %84 ], [ 1, %.thread120 ]
  ret i32 %.0
}